target datalayout = "e-m:e-p270:32:32-p271:32:32-p272:64:64-i64:64-i128:128-f80:128-n8:16:32:64-S128"
target triple = "x86_64-pc-linux-gnu"

%struct.Scl_Item_t_ = type { i32, i32, %struct.Scl_Pair_t_, %struct.Scl_Pair_t_, %struct.Scl_Pair_t_, i32, i32 }
%struct.Scl_Pair_t_ = type { i32, i32 }
%struct.Scl_Tree_t_ = type { ptr, ptr, i64, i32, i32, i32, ptr, ptr, i64, ptr }

@.str.30 = private unnamed_addr constant [4 x i8] c"pin\00", align 1
@.str.31 = private unnamed_addr constant [12 x i8] c"three_state\00", align 1

; Function Attrs: nounwind uwtable
define internal i32 @Scl_LibertyCompare(ptr noundef %0, i64 %1, ptr noundef %2) #0 {
  %4 = alloca %struct.Scl_Pair_t_, align 4
  %5 = alloca ptr, align 8
  %6 = alloca ptr, align 8
  store i64 %1, ptr %4, align 4
  store ptr %0, ptr %5, align 8
  store ptr %2, ptr %6, align 8
  %7 = load ptr, ptr %5, align 8
  %8 = getelementptr inbounds %struct.Scl_Tree_t_, ptr %7, i32 0, i32 1
  %9 = load ptr, ptr %8, align 8
  %10 = getelementptr inbounds %struct.Scl_Pair_t_, ptr %4, i32 0, i32 0
  %11 = load i32, ptr %10, align 4
  %12 = sext i32 %11 to i64
  %13 = getelementptr inbounds i8, ptr %9, i64 %12
  %14 = load ptr, ptr %6, align 8
  %15 = getelementptr inbounds %struct.Scl_Pair_t_, ptr %4, i32 0, i32 1
  %16 = load i32, ptr %15, align 4
  %17 = getelementptr inbounds %struct.Scl_Pair_t_, ptr %4, i32 0, i32 0
  %18 = load i32, ptr %17, align 4
  %19 = sub nsw i32 %16, %18
  %20 = sext i32 %19 to i64
  %21 = call i32 @strncmp(ptr noundef %13, ptr noundef %14, i64 noundef %20) #11
  %22 = icmp ne i32 %21, 0
  br i1 %22, label %33, label %23

23:                                               ; preds = %3
  %24 = load ptr, ptr %6, align 8
  %25 = call i64 @strlen(ptr noundef %24) #11
  %26 = trunc i64 %25 to i32
  %27 = getelementptr inbounds %struct.Scl_Pair_t_, ptr %4, i32 0, i32 1
  %28 = load i32, ptr %27, align 4
  %29 = getelementptr inbounds %struct.Scl_Pair_t_, ptr %4, i32 0, i32 0
  %30 = load i32, ptr %29, align 4
  %31 = sub nsw i32 %28, %30
  %32 = icmp ne i32 %26, %31
  br label %33

33:                                               ; preds = %23, %3
  %34 = phi i1 [ true, %3 ], [ %32, %23 ]
  %35 = zext i1 %34 to i32
  ret i32 %35
}

; Function Attrs: nounwind uwtable
define internal ptr @Scl_LibertyItem(ptr noundef %0, i32 noundef %1) #0 {
  %3 = alloca ptr, align 8
  %4 = alloca i32, align 4
  store ptr %0, ptr %3, align 8
  store i32 %1, ptr %4, align 4
  %5 = load i32, ptr %4, align 4
  %6 = icmp slt i32 %5, 0
  br i1 %6, label %7, label %8

7:                                                ; preds = %2
  br label %15

8:                                                ; preds = %2
  %9 = load ptr, ptr %3, align 8
  %10 = getelementptr inbounds %struct.Scl_Tree_t_, ptr %9, i32 0, i32 6
  %11 = load ptr, ptr %10, align 8
  %12 = load i32, ptr %4, align 4
  %13 = sext i32 %12 to i64
  %14 = getelementptr inbounds %struct.Scl_Item_t_, ptr %11, i64 %13
  br label %15

15:                                               ; preds = %8, %7
  %16 = phi ptr [ null, %7 ], [ %14, %8 ]
  ret ptr %16
}

; Function Attrs: nounwind uwtable
define i32 @Scl_LibertyReadCellIsThreeState(ptr noundef %0, ptr noundef %1) #0 {
  %3 = alloca i32, align 4
  %4 = alloca ptr, align 8
  %5 = alloca ptr, align 8
  %6 = alloca ptr, align 8
  %7 = alloca ptr, align 8
  store ptr %0, ptr %4, align 8
  store ptr %1, ptr %5, align 8
  %8 = load ptr, ptr %4, align 8
  %9 = load ptr, ptr %5, align 8
  %10 = getelementptr inbounds %struct.Scl_Item_t_, ptr %9, i32 0, i32 6
  %11 = load i32, ptr %10, align 4
  %12 = call ptr @Scl_LibertyItem(ptr noundef %8, i32 noundef %11)
  store ptr %12, ptr %6, align 8
  br label %13

13:                                               ; preds = %51, %2
  %14 = load ptr, ptr %6, align 8
  %15 = icmp ne ptr %14, null
  br i1 %15, label %16, label %57

16:                                               ; preds = %13
  %17 = load ptr, ptr %4, align 8
  %18 = load ptr, ptr %6, align 8
  %19 = getelementptr inbounds %struct.Scl_Item_t_, ptr %18, i32 0, i32 2
  %20 = load i64, ptr %19, align 4
  %21 = call i32 @Scl_LibertyCompare(ptr noundef %17, i64 %20, ptr noundef @.str.30)
  %22 = icmp ne i32 %21, 0
  br i1 %22, label %23, label %24

23:                                               ; preds = %16
  br label %50

24:                                               ; preds = %16
  %25 = load ptr, ptr %4, align 8
  %26 = load ptr, ptr %6, align 8
  %27 = getelementptr inbounds %struct.Scl_Item_t_, ptr %26, i32 0, i32 6
  %28 = load i32, ptr %27, align 4
  %29 = call ptr @Scl_LibertyItem(ptr noundef %25, i32 noundef %28)
  store ptr %29, ptr %7, align 8
  br label %30

30:                                               ; preds = %43, %24
  %31 = load ptr, ptr %7, align 8
  %32 = icmp ne ptr %31, null
  br i1 %32, label %33, label %49

33:                                               ; preds = %30
  %34 = load ptr, ptr %4, align 8
  %35 = load ptr, ptr %7, align 8
  %36 = getelementptr inbounds %struct.Scl_Item_t_, ptr %35, i32 0, i32 2
  %37 = load i64, ptr %36, align 4
  %38 = call i32 @Scl_LibertyCompare(ptr noundef %34, i64 %37, ptr noundef @.str.31)
  %39 = icmp ne i32 %38, 0
  br i1 %39, label %40, label %41

40:                                               ; preds = %33
  br label %42

41:                                               ; preds = %33
  store i32 1, ptr %3, align 4
  br label %58

42:                                               ; preds = %40
  br label %43

43:                                               ; preds = %42
  %44 = load ptr, ptr %4, align 8
  %45 = load ptr, ptr %7, align 8
  %46 = getelementptr inbounds %struct.Scl_Item_t_, ptr %45, i32 0, i32 5
  %47 = load i32, ptr %46, align 4
  %48 = call ptr @Scl_LibertyItem(ptr noundef %44, i32 noundef %47)
  store ptr %48, ptr %7, align 8
  br label %30, !llvm.loop !32

49:                                               ; preds = %30
  br label %50

50:                                               ; preds = %49, %23
  br label %51

51:                                               ; preds = %50
  %52 = load ptr, ptr %4, align 8
  %53 = load ptr, ptr %6, align 8
  %54 = getelementptr inbounds %struct.Scl_Item_t_, ptr %53, i32 0, i32 5
  %55 = load i32, ptr %54, align 4
  %56 = call ptr @Scl_LibertyItem(ptr noundef %52, i32 noundef %55)
  store ptr %56, ptr %6, align 8
  br label %13, !llvm.loop !33

57:                                               ; preds = %13
  store i32 0, ptr %3, align 4
  br label %58

58:                                               ; preds = %57, %41
  %59 = load i32, ptr %3, align 4
  ret i32 %59
}