; Function Attrs: nofree nounwind memory(read, inaccessiblemem: none) uwtable
define range(i32 0, 2) i32 @Scl_LibertyReadCellIsThreeState(ptr noundef readonly captures(none) %0, ptr noundef readonly captures(none) %1) local_unnamed_addr #6 {
  %3 = getelementptr inbounds nuw i8, ptr %1, i64 36
  %4 = load i32, ptr %3, align 4
  %5 = icmp slt i32 %4, 0
  br i1 %5, label %.loopexit, label %Scl_LibertyItem.exit

Scl_LibertyItem.exit:                             ; preds = %2
  %6 = getelementptr inbounds nuw i8, ptr %0, i64 40
  %7 = load ptr, ptr %6, align 8
  %.not37 = icmp eq ptr %7, null
  br i1 %.not37, label %.loopexit, label %.lr.ph39

.lr.ph39:                                         ; preds = %Scl_LibertyItem.exit
  %8 = zext nneg i32 %4 to i64
  %9 = getelementptr inbounds nuw %struct.Scl_Item_t_, ptr %7, i64 %8
  %10 = getelementptr i8, ptr %0, i64 8
  %.val19 = load ptr, ptr %10, align 8
  %11 = getelementptr inbounds nuw i8, ptr %0, i64 40
  br label %12

12:                                               ; preds = %.lr.ph39, %Scl_LibertyItem.exit28
  %.01438 = phi ptr [ %9, %.lr.ph39 ], [ %45, %Scl_LibertyItem.exit28 ]
  %13 = getelementptr inbounds nuw i8, ptr %.01438, i64 8
  %14 = load i64, ptr %13, align 4
  %.sroa.0.0.extract.trunc.i = trunc i64 %14 to i32
  %.sroa.4.0.extract.shift.i = lshr i64 %14, 32
  %.sroa.4.0.extract.trunc.i = trunc nuw i64 %.sroa.4.0.extract.shift.i to i32
  %sext.i = shl i64 %14, 32
  %15 = ashr exact i64 %sext.i, 32
  %16 = getelementptr inbounds i8, ptr %.val19, i64 %15
  %17 = sub nsw i32 %.sroa.4.0.extract.trunc.i, %.sroa.0.0.extract.trunc.i
  %18 = sext i32 %17 to i64
  %19 = tail call i32 @strncmp(ptr noundef readonly %16, ptr noundef nonnull @.str.30, i64 noundef %18) #30
  %.not.i = icmp eq i32 %19, 0
  %.not31 = icmp eq i32 %17, 3
  %or.cond = and i1 %.not.i, %.not31
  br i1 %or.cond, label %20, label %Scl_LibertyCompare.exit.thread

20:                                               ; preds = %12
  %21 = getelementptr inbounds nuw i8, ptr %.01438, i64 36
  %22 = load i32, ptr %21, align 4
  %23 = icmp slt i32 %22, 0
  br i1 %23, label %Scl_LibertyCompare.exit.thread, label %Scl_LibertyItem.exit20

Scl_LibertyItem.exit20:                           ; preds = %20
  %24 = load ptr, ptr %11, align 8
  %.not1735 = icmp eq ptr %24, null
  br i1 %.not1735, label %Scl_LibertyCompare.exit.thread, label %.lr.ph.preheader

.lr.ph.preheader:                                 ; preds = %Scl_LibertyItem.exit20
  %25 = zext nneg i32 %22 to i64
  %26 = getelementptr inbounds nuw %struct.Scl_Item_t_, ptr %24, i64 %25
  br label %.lr.ph

.lr.ph:                                           ; preds = %.lr.ph.preheader, %Scl_LibertyItem.exit27
  %.036 = phi ptr [ %39, %Scl_LibertyItem.exit27 ], [ %26, %.lr.ph.preheader ]
  %27 = getelementptr inbounds nuw i8, ptr %.036, i64 8
  %28 = load i64, ptr %27, align 4
  %.sroa.0.0.extract.trunc.i21 = trunc i64 %28 to i32
  %.sroa.4.0.extract.shift.i22 = lshr i64 %28, 32
  %.sroa.4.0.extract.trunc.i23 = trunc nuw i64 %.sroa.4.0.extract.shift.i22 to i32
  %sext.i24 = shl i64 %28, 32
  %29 = ashr exact i64 %sext.i24, 32
  %30 = getelementptr inbounds i8, ptr %.val19, i64 %29
  %31 = sub nsw i32 %.sroa.4.0.extract.trunc.i23, %.sroa.0.0.extract.trunc.i21
  %32 = sext i32 %31 to i64
  %33 = tail call i32 @strncmp(ptr noundef readonly %30, ptr noundef nonnull @.str.31, i64 noundef %32) #30
  %.not.i25 = icmp eq i32 %33, 0
  %.not32 = icmp eq i32 %31, 11
  %or.cond33 = and i1 %.not.i25, %.not32
  br i1 %or.cond33, label %.loopexit, label %Scl_LibertyCompare.exit26.thread

Scl_LibertyCompare.exit26.thread:                 ; preds = %.lr.ph
  %34 = getelementptr inbounds nuw i8, ptr %.036, i64 32
  %35 = load i32, ptr %34, align 4
  %36 = icmp slt i32 %35, 0
  br i1 %36, label %Scl_LibertyCompare.exit.thread, label %Scl_LibertyItem.exit27

Scl_LibertyItem.exit27:                           ; preds = %Scl_LibertyCompare.exit26.thread
  %37 = load ptr, ptr %11, align 8
  %38 = zext nneg i32 %35 to i64
  %39 = getelementptr inbounds nuw %struct.Scl_Item_t_, ptr %37, i64 %38
  %.not17 = icmp eq ptr %37, null
  br i1 %.not17, label %Scl_LibertyCompare.exit.thread, label %.lr.ph, !llvm.loop !31

Scl_LibertyCompare.exit.thread:                   ; preds = %Scl_LibertyCompare.exit26.thread, %Scl_LibertyItem.exit27, %20, %Scl_LibertyItem.exit20, %12
  %40 = getelementptr inbounds nuw i8, ptr %.01438, i64 32
  %41 = load i32, ptr %40, align 4
  %42 = icmp slt i32 %41, 0
  br i1 %42, label %.loopexit, label %Scl_LibertyItem.exit28

Scl_LibertyItem.exit28:                           ; preds = %Scl_LibertyCompare.exit.thread
  %43 = load ptr, ptr %11, align 8
  %44 = zext nneg i32 %41 to i64
  %45 = getelementptr inbounds nuw %struct.Scl_Item_t_, ptr %43, i64 %44
  %.not = icmp eq ptr %43, null
  br i1 %.not, label %.loopexit, label %12, !llvm.loop !32

.loopexit:                                        ; preds = %Scl_LibertyCompare.exit.thread, %Scl_LibertyItem.exit28, %.lr.ph, %2, %Scl_LibertyItem.exit
  %.015 = phi i32 [ 0, %Scl_LibertyItem.exit ], [ 0, %2 ], [ 1, %.lr.ph ], [ 0, %Scl_LibertyItem.exit28 ], [ 0, %Scl_LibertyCompare.exit.thread ]
  ret i32 %.015
}